target datalayout = "e-m:e-p270:32:32-p271:32:32-p272:64:64-i64:64-i128:128-f80:128-n8:16:32:64-S128"
target triple = "x86_64-pc-linux-gnu"

%struct.CVodeMemRec = type { double, ptr, ptr, i32, i32, i32, double, double, ptr, i32, ptr, ptr, i32, ptr, i32, i32, double, double, ptr, i32, i32, i32, ptr, ptr, ptr, i32, i32, ptr, ptr, ptr, i32, double, i32, i32, double, ptr, ptr, i32, ptr, ptr, i32, i32, i32, double, ptr, ptr, [13 x ptr], ptr, ptr, ptr, ptr, ptr, [13 x ptr], ptr, ptr, ptr, ptr, [13 x ptr], ptr, ptr, ptr, ptr, ptr, i32, [13 x ptr], ptr, ptr, ptr, ptr, ptr, i32, double, i32, i32, i32, i32, i32, double, double, double, double, double, double, double, double, [14 x double], [6 x double], [13 x double], double, double, double, double, double, double, double, double, double, double, double, i32, ptr, i32, i64, i32, i32, i32, i32, i32, double, double, double, i64, i64, i64, i64, i64, i64, i64, i64, i64, ptr, i64, i64, ptr, i64, i64, i64, i64, i64, i64, i32, i64, i64, i64, i64, i64, i64, double, double, double, ptr, ptr, ptr, ptr, ptr, i32, i32, i64, double, double, double, i32, double, i32, i32, i32, i32, i32, i32, i32, i32, i32, i32, i32, i32, i32, i32, i32, i32, ptr, ptr, ptr, i32, [6 x [4 x double]], i32, i64, ptr, i32, ptr, ptr, double, double, double, ptr, ptr, ptr, double, double, i32, i32, i64, ptr, i32, i32, ptr, i32 }
%struct.CVDlsMemRec = type { i32, i64, i64, i64, i64, i32, ptr, ptr, ptr, ptr, ptr, ptr, ptr, i64, i64, i64, i64 }

@.str = private unnamed_addr constant [9 x i8] c"CVSDENSE\00", align 1
@.str.8 = private unnamed_addr constant [13 x i8] c"cvDenseSetup\00", align 1
@.str.9 = private unnamed_addr constant [56 x i8] c"The Jacobian routine failed in an unrecoverable manner.\00", align 1

; Function Attrs: nounwind uwtable
define internal i32 @cvDenseSetup(ptr noundef %0, i32 noundef %1, ptr noundef %2, ptr noundef %3, ptr noundef %4, ptr noundef %5, ptr noundef %6, ptr noundef %7) #0 {
  %9 = alloca i32, align 4
  %10 = alloca ptr, align 8
  %11 = alloca i32, align 4
  %12 = alloca ptr, align 8
  %13 = alloca ptr, align 8
  %14 = alloca ptr, align 8
  %15 = alloca ptr, align 8
  %16 = alloca ptr, align 8
  %17 = alloca ptr, align 8
  %18 = alloca ptr, align 8
  %19 = alloca i32, align 4
  %20 = alloca i32, align 4
  %21 = alloca double, align 8
  %22 = alloca i32, align 4
  %23 = alloca i64, align 8
  %24 = alloca i32, align 4
  store ptr %0, ptr %10, align 8, !tbaa !9
  store i32 %1, ptr %11, align 4, !tbaa !51
  store ptr %2, ptr %12, align 8, !tbaa !52
  store ptr %3, ptr %13, align 8, !tbaa !52
  store ptr %4, ptr %14, align 8, !tbaa !53
  store ptr %5, ptr %15, align 8, !tbaa !52
  store ptr %6, ptr %16, align 8, !tbaa !52
  store ptr %7, ptr %17, align 8, !tbaa !52
  call void @llvm.lifetime.start.p0(i64 8, ptr %18) #5
  call void @llvm.lifetime.start.p0(i64 4, ptr %19) #5
  call void @llvm.lifetime.start.p0(i64 4, ptr %20) #5
  call void @llvm.lifetime.start.p0(i64 8, ptr %21) #5
  call void @llvm.lifetime.start.p0(i64 4, ptr %22) #5
  call void @llvm.lifetime.start.p0(i64 8, ptr %23) #5
  %25 = load ptr, ptr %10, align 8, !tbaa !9
  %26 = getelementptr inbounds nuw %struct.CVodeMemRec, ptr %25, i32 0, i32 144
  %27 = load ptr, ptr %26, align 8, !tbaa !46
  store ptr %27, ptr %18, align 8, !tbaa !32
  %28 = load ptr, ptr %10, align 8, !tbaa !9
  %29 = getelementptr inbounds nuw %struct.CVodeMemRec, ptr %28, i32 0, i32 89
  %30 = load double, ptr %29, align 8, !tbaa !54
  %31 = load ptr, ptr %10, align 8, !tbaa !9
  %32 = getelementptr inbounds nuw %struct.CVodeMemRec, ptr %31, i32 0, i32 90
  %33 = load double, ptr %32, align 8, !tbaa !55
  %34 = fdiv double %30, %33
  %35 = fsub double %34, 1.000000e+00
  %36 = call double @SUNRabs(double noundef %35)
  store double %36, ptr %21, align 8, !tbaa !56
  %37 = load ptr, ptr %10, align 8, !tbaa !9
  %38 = getelementptr inbounds nuw %struct.CVodeMemRec, ptr %37, i32 0, i32 111
  %39 = load i64, ptr %38, align 8, !tbaa !57
  %40 = icmp eq i64 %39, 0
  br i1 %40, label %59, label %41

41:                                               ; preds = %8
  %42 = load ptr, ptr %10, align 8, !tbaa !9
  %43 = getelementptr inbounds nuw %struct.CVodeMemRec, ptr %42, i32 0, i32 111
  %44 = load i64, ptr %43, align 8, !tbaa !57
  %45 = load ptr, ptr %18, align 8, !tbaa !32
  %46 = getelementptr inbounds nuw %struct.CVDlsMemRec, ptr %45, i32 0, i32 13
  %47 = load i64, ptr %46, align 8, !tbaa !49
  %48 = add nsw i64 %47, 50
  %49 = icmp sgt i64 %44, %48
  br i1 %49, label %59, label %50

50:                                               ; preds = %41
  %51 = load i32, ptr %11, align 4, !tbaa !51
  %52 = icmp eq i32 %51, 1
  br i1 %52, label %53, label %56

53:                                               ; preds = %50
  %54 = load double, ptr %21, align 8, !tbaa !56
  %55 = fcmp olt double %54, 2.000000e-01
  br i1 %55, label %59, label %56

56:                                               ; preds = %53, %50
  %57 = load i32, ptr %11, align 4, !tbaa !51
  %58 = icmp eq i32 %57, 2
  br label %59

59:                                               ; preds = %56, %53, %41, %8
  %60 = phi i1 [ true, %53 ], [ true, %41 ], [ true, %8 ], [ %58, %56 ]
  %61 = zext i1 %60 to i32
  store i32 %61, ptr %19, align 4, !tbaa !51
  %62 = load i32, ptr %19, align 4, !tbaa !51
  %63 = icmp ne i32 %62, 0
  %64 = xor i1 %63, true
  %65 = zext i1 %64 to i32
  store i32 %65, ptr %20, align 4, !tbaa !51
  %66 = load i32, ptr %20, align 4, !tbaa !51
  %67 = icmp ne i32 %66, 0
  br i1 %67, label %68, label %76

68:                                               ; preds = %59
  %69 = load ptr, ptr %14, align 8, !tbaa !53
  store i32 0, ptr %69, align 4, !tbaa !51
  %70 = load ptr, ptr %18, align 8, !tbaa !32
  %71 = getelementptr inbounds nuw %struct.CVDlsMemRec, ptr %70, i32 0, i32 10
  %72 = load ptr, ptr %71, align 8, !tbaa !44
  %73 = load ptr, ptr %18, align 8, !tbaa !32
  %74 = getelementptr inbounds nuw %struct.CVDlsMemRec, ptr %73, i32 0, i32 9
  %75 = load ptr, ptr %74, align 8, !tbaa !43
  call void @DenseCopy(ptr noundef %72, ptr noundef %75)
  br label %130

76:                                               ; preds = %59
  %77 = load ptr, ptr %18, align 8, !tbaa !32
  %78 = getelementptr inbounds nuw %struct.CVDlsMemRec, ptr %77, i32 0, i32 14
  %79 = load i64, ptr %78, align 8, !tbaa !47
  %80 = add nsw i64 %79, 1
  store i64 %80, ptr %78, align 8, !tbaa !47
  %81 = load ptr, ptr %10, align 8, !tbaa !9
  %82 = getelementptr inbounds nuw %struct.CVodeMemRec, ptr %81, i32 0, i32 111
  %83 = load i64, ptr %82, align 8, !tbaa !57
  %84 = load ptr, ptr %18, align 8, !tbaa !32
  %85 = getelementptr inbounds nuw %struct.CVDlsMemRec, ptr %84, i32 0, i32 13
  store i64 %83, ptr %85, align 8, !tbaa !49
  %86 = load ptr, ptr %14, align 8, !tbaa !53
  store i32 1, ptr %86, align 4, !tbaa !51
  %87 = load ptr, ptr %18, align 8, !tbaa !32
  %88 = getelementptr inbounds nuw %struct.CVDlsMemRec, ptr %87, i32 0, i32 9
  %89 = load ptr, ptr %88, align 8, !tbaa !43
  call void @SetToZero(ptr noundef %89)
  %90 = load ptr, ptr %18, align 8, !tbaa !32
  %91 = getelementptr inbounds nuw %struct.CVDlsMemRec, ptr %90, i32 0, i32 6
  %92 = load ptr, ptr %91, align 8, !tbaa !38
  %93 = load ptr, ptr %18, align 8, !tbaa !32
  %94 = getelementptr inbounds nuw %struct.CVDlsMemRec, ptr %93, i32 0, i32 1
  %95 = load i64, ptr %94, align 8, !tbaa !42
  %96 = load ptr, ptr %10, align 8, !tbaa !9
  %97 = getelementptr inbounds nuw %struct.CVodeMemRec, ptr %96, i32 0, i32 83
  %98 = load double, ptr %97, align 8, !tbaa !58
  %99 = load ptr, ptr %12, align 8, !tbaa !52
  %100 = load ptr, ptr %13, align 8, !tbaa !52
  %101 = load ptr, ptr %18, align 8, !tbaa !32
  %102 = getelementptr inbounds nuw %struct.CVDlsMemRec, ptr %101, i32 0, i32 9
  %103 = load ptr, ptr %102, align 8, !tbaa !43
  %104 = load ptr, ptr %18, align 8, !tbaa !32
  %105 = getelementptr inbounds nuw %struct.CVDlsMemRec, ptr %104, i32 0, i32 8
  %106 = load ptr, ptr %105, align 8, !tbaa !39
  %107 = load ptr, ptr %15, align 8, !tbaa !52
  %108 = load ptr, ptr %16, align 8, !tbaa !52
  %109 = load ptr, ptr %17, align 8, !tbaa !52
  %110 = call i32 %92(i64 noundef %95, double noundef %98, ptr noundef %99, ptr noundef %100, ptr noundef %103, ptr noundef %106, ptr noundef %107, ptr noundef %108, ptr noundef %109)
  store i32 %110, ptr %22, align 4, !tbaa !51
  %111 = load i32, ptr %22, align 4, !tbaa !51
  %112 = icmp slt i32 %111, 0
  br i1 %112, label %113, label %117

113:                                              ; preds = %76
  %114 = load ptr, ptr %10, align 8, !tbaa !9
  call void (ptr, i32, ptr, ptr, ptr, ...) @cvProcessError(ptr noundef %114, i32 noundef -5, ptr noundef @.str, ptr noundef @.str.8, ptr noundef @.str.9)
  %115 = load ptr, ptr %18, align 8, !tbaa !32
  %116 = getelementptr inbounds nuw %struct.CVDlsMemRec, ptr %115, i32 0, i32 16
  store i64 -5, ptr %116, align 8, !tbaa !40
  store i32 -1, ptr %9, align 4
  store i32 1, ptr %24, align 4
  br label %155

117:                                              ; preds = %76
  %118 = load i32, ptr %22, align 4, !tbaa !51
  %119 = icmp sgt i32 %118, 0
  br i1 %119, label %120, label %123

120:                                              ; preds = %117
  %121 = load ptr, ptr %18, align 8, !tbaa !32
  %122 = getelementptr inbounds nuw %struct.CVDlsMemRec, ptr %121, i32 0, i32 16
  store i64 -6, ptr %122, align 8, !tbaa !40
  store i32 1, ptr %9, align 4
  store i32 1, ptr %24, align 4
  br label %155

123:                                              ; preds = %117
  %124 = load ptr, ptr %18, align 8, !tbaa !32
  %125 = getelementptr inbounds nuw %struct.CVDlsMemRec, ptr %124, i32 0, i32 9
  %126 = load ptr, ptr %125, align 8, !tbaa !43
  %127 = load ptr, ptr %18, align 8, !tbaa !32
  %128 = getelementptr inbounds nuw %struct.CVDlsMemRec, ptr %127, i32 0, i32 10
  %129 = load ptr, ptr %128, align 8, !tbaa !44
  call void @DenseCopy(ptr noundef %126, ptr noundef %129)
  br label %130

130:                                              ; preds = %123, %68
  %131 = load ptr, ptr %10, align 8, !tbaa !9
  %132 = getelementptr inbounds nuw %struct.CVodeMemRec, ptr %131, i32 0, i32 89
  %133 = load double, ptr %132, align 8, !tbaa !54
  %134 = fneg double %133
  %135 = load ptr, ptr %18, align 8, !tbaa !32
  %136 = getelementptr inbounds nuw %struct.CVDlsMemRec, ptr %135, i32 0, i32 9
  %137 = load ptr, ptr %136, align 8, !tbaa !43
  call void @DenseScale(double noundef %134, ptr noundef %137)
  %138 = load ptr, ptr %18, align 8, !tbaa !32
  %139 = getelementptr inbounds nuw %struct.CVDlsMemRec, ptr %138, i32 0, i32 9
  %140 = load ptr, ptr %139, align 8, !tbaa !43
  call void @AddIdentity(ptr noundef %140)
  %141 = load ptr, ptr %18, align 8, !tbaa !32
  %142 = getelementptr inbounds nuw %struct.CVDlsMemRec, ptr %141, i32 0, i32 9
  %143 = load ptr, ptr %142, align 8, !tbaa !43
  %144 = load ptr, ptr %18, align 8, !tbaa !32
  %145 = getelementptr inbounds nuw %struct.CVDlsMemRec, ptr %144, i32 0, i32 12
  %146 = load ptr, ptr %145, align 8, !tbaa !45
  %147 = call i64 @DenseGETRF(ptr noundef %143, ptr noundef %146)
  store i64 %147, ptr %23, align 8, !tbaa !7
  %148 = load i64, ptr %23, align 8, !tbaa !7
  %149 = load ptr, ptr %18, align 8, !tbaa !32
  %150 = getelementptr inbounds nuw %struct.CVDlsMemRec, ptr %149, i32 0, i32 16
  store i64 %148, ptr %150, align 8, !tbaa !40
  %151 = load i64, ptr %23, align 8, !tbaa !7
  %152 = icmp sgt i64 %151, 0
  br i1 %152, label %153, label %154

153:                                              ; preds = %130
  store i32 1, ptr %9, align 4
  store i32 1, ptr %24, align 4
  br label %155

154:                                              ; preds = %130
  store i32 0, ptr %9, align 4
  store i32 1, ptr %24, align 4
  br label %155

155:                                              ; preds = %154, %153, %120, %113
  call void @llvm.lifetime.end.p0(i64 8, ptr %23) #5
  call void @llvm.lifetime.end.p0(i64 4, ptr %22) #5
  call void @llvm.lifetime.end.p0(i64 8, ptr %21) #5
  call void @llvm.lifetime.end.p0(i64 4, ptr %20) #5
  call void @llvm.lifetime.end.p0(i64 4, ptr %19) #5
  call void @llvm.lifetime.end.p0(i64 8, ptr %18) #5
  %156 = load i32, ptr %9, align 4
  ret i32 %156
}