; Function Attrs: nounwind uwtable
define internal range(i32 -1, 2) i32 @cvDenseSetup(ptr noundef %0, i32 noundef %1, ptr noundef %2, ptr noundef %3, ptr noundef writeonly captures(none) initializes((0, 4)) %4, ptr noundef %5, ptr noundef %6, ptr noundef %7) #0 {
  %9 = getelementptr inbounds nuw i8, ptr %0, i64 1696
  %10 = load ptr, ptr %9, align 8, !tbaa !40
  %11 = getelementptr inbounds nuw i8, ptr %0, i64 1272
  %12 = load double, ptr %11, align 8, !tbaa !42
  %13 = getelementptr inbounds nuw i8, ptr %0, i64 1280
  %14 = load double, ptr %13, align 8, !tbaa !43
  %15 = fdiv double %12, %14
  %16 = fadd double %15, -1.000000e+00
  %17 = tail call double @SUNRabs(double noundef %16) #7
  %18 = getelementptr inbounds nuw i8, ptr %0, i64 1432
  %19 = load i64, ptr %18, align 8, !tbaa !44
  %20 = icmp eq i64 %19, 0
  br i1 %20, label %.critedge, label %21

21:                                               ; preds = %8
  %22 = getelementptr inbounds nuw i8, ptr %10, i64 104
  %23 = load i64, ptr %22, align 8, !tbaa !45
  %24 = add nsw i64 %23, 50
  %25 = icmp sgt i64 %19, %24
  br i1 %25, label %.critedge, label %26

26:                                               ; preds = %21
  %27 = icmp ne i32 %1, 1
  %28 = fcmp uge double %17, 2.000000e-01
  %or.cond.not = select i1 %27, i1 true, i1 %28
  %29 = icmp ne i32 %1, 2
  %spec.select = and i1 %29, %or.cond.not
  br i1 %spec.select, label %30, label %.critedge

30:                                               ; preds = %26
  store i32 0, ptr %4, align 4, !tbaa !46
  %31 = getelementptr inbounds nuw i8, ptr %10, i64 80
  br label %54

.critedge:                                        ; preds = %21, %8, %26
  %32 = getelementptr inbounds nuw i8, ptr %10, i64 112
  %33 = load i64, ptr %32, align 8, !tbaa !47
  %34 = add nsw i64 %33, 1
  store i64 %34, ptr %32, align 8, !tbaa !47
  %35 = getelementptr inbounds nuw i8, ptr %10, i64 104
  store i64 %19, ptr %35, align 8, !tbaa !45
  store i32 1, ptr %4, align 4, !tbaa !46
  %36 = getelementptr inbounds nuw i8, ptr %10, i64 72
  %37 = load ptr, ptr %36, align 8, !tbaa !37
  tail call void @SetToZero(ptr noundef %37) #7
  %38 = getelementptr inbounds nuw i8, ptr %10, i64 48
  %39 = load ptr, ptr %38, align 8, !tbaa !32
  %40 = getelementptr inbounds nuw i8, ptr %10, i64 8
  %41 = load i64, ptr %40, align 8, !tbaa !36
  %42 = getelementptr inbounds nuw i8, ptr %0, i64 984
  %43 = load double, ptr %42, align 8, !tbaa !48
  %44 = load ptr, ptr %36, align 8, !tbaa !37
  %45 = getelementptr inbounds nuw i8, ptr %10, i64 64
  %46 = load ptr, ptr %45, align 8, !tbaa !33
  %47 = tail call i32 %39(i64 noundef %41, double noundef %43, ptr noundef %2, ptr noundef %3, ptr noundef %44, ptr noundef %46, ptr noundef %5, ptr noundef %6, ptr noundef %7) #7
  %48 = icmp slt i32 %47, 0
  br i1 %48, label %49, label %51

49:                                               ; preds = %.critedge
  tail call void (ptr, i32, ptr, ptr, ptr, ...) @cvProcessError(ptr noundef nonnull %0, i32 noundef -5, ptr noundef nonnull @.str, ptr noundef nonnull @.str.8, ptr noundef nonnull @.str.9) #7
  %50 = getelementptr inbounds nuw i8, ptr %10, i64 128
  store i64 -5, ptr %50, align 8, !tbaa !34
  br label %68

51:                                               ; preds = %.critedge
  %.not = icmp eq i32 %47, 0
  br i1 %.not, label %54, label %52

52:                                               ; preds = %51
  %53 = getelementptr inbounds nuw i8, ptr %10, i64 128
  store i64 -6, ptr %53, align 8, !tbaa !34
  br label %68

54:                                               ; preds = %51, %30
  %.sink51 = phi i64 [ 72, %30 ], [ 80, %51 ]
  %.sink.in = phi ptr [ %31, %30 ], [ %36, %51 ]
  %.sink = load ptr, ptr %.sink.in, align 8, !tbaa !49
  %55 = getelementptr inbounds nuw i8, ptr %10, i64 %.sink51
  %56 = load ptr, ptr %55, align 8, !tbaa !49
  tail call void @DenseCopy(ptr noundef %.sink, ptr noundef %56) #7
  %57 = load double, ptr %11, align 8, !tbaa !42
  %58 = fneg double %57
  %59 = getelementptr inbounds nuw i8, ptr %10, i64 72
  %60 = load ptr, ptr %59, align 8, !tbaa !37
  tail call void @DenseScale(double noundef %58, ptr noundef %60) #7
  %61 = load ptr, ptr %59, align 8, !tbaa !37
  tail call void @AddIdentity(ptr noundef %61) #7
  %62 = load ptr, ptr %59, align 8, !tbaa !37
  %63 = getelementptr inbounds nuw i8, ptr %10, i64 96
  %64 = load ptr, ptr %63, align 8, !tbaa !39
  %65 = tail call i64 @DenseGETRF(ptr noundef %62, ptr noundef %64) #7
  %66 = getelementptr inbounds nuw i8, ptr %10, i64 128
  store i64 %65, ptr %66, align 8, !tbaa !34
  %67 = icmp sgt i64 %65, 0
  %. = zext i1 %67 to i32
  br label %68

68:                                               ; preds = %54, %52, %49
  %.0 = phi i32 [ -1, %49 ], [ 1, %52 ], [ %., %54 ]
  ret i32 %.0
}